; ModuleID = 'source-C-CXX/53/646.c'
source_filename = "source-C-CXX/53/646.c"
target datalayout = "e-m:e-p270:32:32-p271:32:32-p272:64:64-i64:64-f80:128-n8:16:32:64-S128"
target triple = "x86_64-pc-linux-gnu"

@.str = private unnamed_addr constant [5 x i8] c"%d%d\00", align 1
@.str.1 = private unnamed_addr constant [4 x i8] c"%d\0A\00", align 1

; Function Attrs: nofree nounwind sspstrong uwtable
define dso_local void @main() local_unnamed_addr #0 {
  %1 = alloca i32, align 4
  %2 = alloca i32, align 4
  %3 = bitcast i32* %1 to i8*
  call void @llvm.lifetime.start.p0i8(i64 4, i8* nonnull %3) #3
  %4 = bitcast i32* %2 to i8*
  call void @llvm.lifetime.start.p0i8(i64 4, i8* nonnull %4) #3
  %5 = call i32 (i8*, ...) @__isoc99_scanf(i8* getelementptr inbounds ([5 x i8], [5 x i8]* @.str, i64 0, i64 0), i32* nonnull %1, i32* nonnull %2)
  %6 = load i32, i32* %1, align 4, !tbaa !5
  %7 = load i32, i32* %2, align 4, !tbaa !5
  %8 = add nsw i32 %7, %6
  %9 = icmp sgt i32 %6, 1
  br i1 %9, label %10, label %29

10:                                               ; preds = %0, %27
  %11 = phi i32 [ %28, %27 ], [ %8, %0 ]
  %12 = srem i32 %11, %6
  %13 = icmp eq i32 %12, %7
  br i1 %13, label %16, label %27

14:                                               ; preds = %16
  %15 = icmp eq i32 %26, %6
  br i1 %15, label %34, label %16, !llvm.loop !9

16:                                               ; preds = %10, %14
  %17 = phi i32 [ %21, %14 ], [ %11, %10 ]
  %18 = phi i32 [ %26, %14 ], [ 1, %10 ]
  %19 = sub nsw i32 %17, %7
  %20 = sdiv i32 %19, %6
  %21 = sub nsw i32 %19, %20
  %22 = srem i32 %21, %6
  %23 = icmp ne i32 %22, %7
  %24 = icmp slt i32 %21, %8
  %25 = select i1 %23, i1 true, i1 %24
  %26 = add nuw nsw i32 %18, 1
  br i1 %25, label %27, label %14

27:                                               ; preds = %16, %10
  %28 = add nsw i32 %11, 1
  br label %10

29:                                               ; preds = %0, %29
  %30 = phi i32 [ %33, %29 ], [ %8, %0 ]
  %31 = srem i32 %30, %6
  %32 = icmp eq i32 %31, %7
  %33 = add nsw i32 %30, 1
  br i1 %32, label %34, label %29

34:                                               ; preds = %29, %14
  %35 = phi i32 [ %11, %14 ], [ %30, %29 ]
  %36 = call i32 (i8*, ...) @printf(i8* nonnull dereferenceable(1) getelementptr inbounds ([4 x i8], [4 x i8]* @.str.1, i64 0, i64 0), i32 %35)
  call void @llvm.lifetime.end.p0i8(i64 4, i8* nonnull %4) #3
  call void @llvm.lifetime.end.p0i8(i64 4, i8* nonnull %3) #3
  ret void
}

; Function Attrs: argmemonly mustprogress nofree nosync nounwind willreturn
declare void @llvm.lifetime.start.p0i8(i64 immarg, i8* nocapture) #1

; Function Attrs: nofree nounwind
declare noundef i32 @__isoc99_scanf(i8* nocapture noundef readonly, ...) local_unnamed_addr #2

; Function Attrs: nofree nounwind
declare noundef i32 @printf(i8* nocapture noundef readonly, ...) local_unnamed_addr #2

; Function Attrs: argmemonly mustprogress nofree nosync nounwind willreturn
declare void @llvm.lifetime.end.p0i8(i64 immarg, i8* nocapture) #1


!llvm.module.flags = !{!0, !1, !2, !3}
!llvm.ident = !{!4}

!0 = !{i32 1, !"wchar_size", i32 4}
!1 = !{i32 7, !"PIC Level", i32 2}
!2 = !{i32 7, !"PIE Level", i32 2}
!3 = !{i32 7, !"uwtable", i32 1}
!4 = !{!"clang version 13.0.0"}
!5 = !{!6, !6, i64 0}
!6 = !{!"int", !7, i64 0}
!7 = !{!"omnipotent char", !8, i64 0}
!8 = !{!"Simple C/C++ TBAA"}
!9 = distinct !{!9, !10}
!10 = !{!"llvm.loop.mustprogress"}
